; Function Attrs: nounwind uwtable
define internal noundef i32 @abc_data_clear(ptr noundef captures(none) %0) #0 {
  %2 = getelementptr inbounds nuw i8, ptr %0, i64 16
  %3 = load ptr, ptr %2, align 8, !tbaa !24
  %.not = icmp eq ptr %3, null
  br i1 %.not, label %Py_DECREF.exit23, label %4

4:                                                ; preds = %1
  store ptr null, ptr %2, align 8, !tbaa !24
  %5 = load i32, ptr %3, align 8, !tbaa !17
  %.not.i22 = icmp sgt i32 %5, -1
  br i1 %.not.i22, label %6, label %Py_DECREF.exit23

6:                                                ; preds = %4
  %7 = add nsw i32 %5, -1
  store i32 %7, ptr %3, align 8, !tbaa !17
  %8 = icmp eq i32 %7, 0
  br i1 %8, label %9, label %Py_DECREF.exit23

9:                                                ; preds = %6
  tail call void @_Py_Dealloc(ptr noundef nonnull %3) #4
  br label %Py_DECREF.exit23

Py_DECREF.exit23:                                 ; preds = %9, %6, %4, %1
  %10 = getelementptr inbounds nuw i8, ptr %0, i64 24
  %11 = load ptr, ptr %10, align 8, !tbaa !24
  %.not18 = icmp eq ptr %11, null
  br i1 %.not18, label %Py_DECREF.exit21, label %12

12:                                               ; preds = %Py_DECREF.exit23
  store ptr null, ptr %10, align 8, !tbaa !24
  %13 = load i32, ptr %11, align 8, !tbaa !17
  %.not.i20 = icmp sgt i32 %13, -1
  br i1 %.not.i20, label %14, label %Py_DECREF.exit21

14:                                               ; preds = %12
  %15 = add nsw i32 %13, -1
  store i32 %15, ptr %11, align 8, !tbaa !17
  %16 = icmp eq i32 %15, 0
  br i1 %16, label %17, label %Py_DECREF.exit21

17:                                               ; preds = %14
  tail call void @_Py_Dealloc(ptr noundef nonnull %11) #4
  br label %Py_DECREF.exit21

Py_DECREF.exit21:                                 ; preds = %17, %14, %12, %Py_DECREF.exit23
  %18 = getelementptr inbounds nuw i8, ptr %0, i64 32
  %19 = load ptr, ptr %18, align 8, !tbaa !24
  %.not19 = icmp eq ptr %19, null
  br i1 %.not19, label %Py_DECREF.exit, label %20

20:                                               ; preds = %Py_DECREF.exit21
  store ptr null, ptr %18, align 8, !tbaa !24
  %21 = load i32, ptr %19, align 8, !tbaa !17
  %.not.i = icmp sgt i32 %21, -1
  br i1 %.not.i, label %22, label %Py_DECREF.exit

22:                                               ; preds = %20
  %23 = add nsw i32 %21, -1
  store i32 %23, ptr %19, align 8, !tbaa !17
  %24 = icmp eq i32 %23, 0
  br i1 %24, label %25, label %Py_DECREF.exit

25:                                               ; preds = %22
  tail call void @_Py_Dealloc(ptr noundef nonnull %19) #4
  br label %Py_DECREF.exit

Py_DECREF.exit:                                   ; preds = %25, %22, %20, %Py_DECREF.exit21
  ret i32 0
}